; ModuleID = '19/60.c'
source_filename = "19/60.c"
target datalayout = "e-m:e-p270:32:32-p271:32:32-p272:64:64-i64:64-f80:128-n8:16:32:64-S128"
target triple = "x86_64-pc-linux-gnu"

@.str = private unnamed_addr constant [3 x i8] c"%s\00", align 1
@.str.1 = private unnamed_addr constant [4 x i8] c" %s\00", align 1

; Function Attrs: noinline nounwind uwtable
define dso_local i32 @main() #0 {
  %1 = alloca i32, align 4
  %2 = alloca [100 x i8], align 16
  %3 = alloca [100 x i8], align 16
  %4 = alloca [100 x i8], align 16
  %5 = alloca [100 x [100 x i8]], align 16
  %6 = alloca i32, align 4
  %7 = alloca i32, align 4
  %8 = alloca i32, align 4
  %9 = alloca i32, align 4
  %10 = alloca i32, align 4
  %11 = alloca i32, align 4
  %12 = alloca i32, align 4
  %13 = alloca i32, align 4
  store i32 0, i32* %1, align 4
  %14 = getelementptr inbounds [100 x i8], [100 x i8]* %2, i64 0, i64 0
  %15 = call i32 (i8*, ...) bitcast (i32 (...)* @gets to i32 (i8*, ...)*)(i8* %14)
  %16 = getelementptr inbounds [100 x i8], [100 x i8]* %3, i64 0, i64 0
  %17 = call i32 (i8*, ...) bitcast (i32 (...)* @gets to i32 (i8*, ...)*)(i8* %16)
  %18 = getelementptr inbounds [100 x i8], [100 x i8]* %4, i64 0, i64 0
  %19 = call i32 (i8*, ...) bitcast (i32 (...)* @gets to i32 (i8*, ...)*)(i8* %18)
  store i32 1, i32* %7, align 4
  store i32 1, i32* %8, align 4
  store i32 0, i32* %11, align 4
  br label %20

20:                                               ; preds = %38, %0
  %21 = load i32, i32* %11, align 4
  %22 = icmp sle i32 %21, 99
  br i1 %22, label %23, label %41

23:                                               ; preds = %20
  store i32 0, i32* %12, align 4
  br label %24

24:                                               ; preds = %34, %23
  %25 = load i32, i32* %12, align 4
  %26 = icmp sle i32 %25, 99
  br i1 %26, label %27, label %37

27:                                               ; preds = %24
  %28 = load i32, i32* %11, align 4
  %29 = sext i32 %28 to i64
  %30 = getelementptr inbounds [100 x [100 x i8]], [100 x [100 x i8]]* %5, i64 0, i64 %29
  %31 = load i32, i32* %12, align 4
  %32 = sext i32 %31 to i64
  %33 = getelementptr inbounds [100 x i8], [100 x i8]* %30, i64 0, i64 %32
  store i8 0, i8* %33, align 1
  br label %34

34:                                               ; preds = %27
  %35 = load i32, i32* %12, align 4
  %36 = add nsw i32 %35, 1
  store i32 %36, i32* %12, align 4
  br label %24

37:                                               ; preds = %24
  br label %38

38:                                               ; preds = %37
  %39 = load i32, i32* %11, align 4
  %40 = add nsw i32 %39, 1
  store i32 %40, i32* %11, align 4
  br label %20

41:                                               ; preds = %20
  store i32 0, i32* %6, align 4
  br label %42

42:                                               ; preds = %63, %41
  %43 = load i32, i32* %6, align 4
  %44 = icmp sle i32 %43, 99
  br i1 %44, label %45, label %66

45:                                               ; preds = %42
  %46 = load i32, i32* %6, align 4
  %47 = sext i32 %46 to i64
  %48 = getelementptr inbounds [100 x i8], [100 x i8]* %2, i64 0, i64 %47
  %49 = load i8, i8* %48, align 1
  %50 = sext i8 %49 to i32
  %51 = icmp eq i32 %50, 32
  br i1 %51, label %52, label %53

52:                                               ; preds = %45
  br label %66

53:                                               ; preds = %45
  %54 = load i32, i32* %6, align 4
  %55 = sext i32 %54 to i64
  %56 = getelementptr inbounds [100 x i8], [100 x i8]* %2, i64 0, i64 %55
  %57 = load i8, i8* %56, align 1
  %58 = getelementptr inbounds [100 x [100 x i8]], [100 x [100 x i8]]* %5, i64 0, i64 0
  %59 = load i32, i32* %6, align 4
  %60 = sext i32 %59 to i64
  %61 = getelementptr inbounds [100 x i8], [100 x i8]* %58, i64 0, i64 %60
  store i8 %57, i8* %61, align 1
  br label %62

62:                                               ; preds = %53
  br label %63

63:                                               ; preds = %62
  %64 = load i32, i32* %6, align 4
  %65 = add nsw i32 %64, 1
  store i32 %65, i32* %6, align 4
  br label %42

66:                                               ; preds = %52, %42
  br label %67

67:                                               ; preds = %117, %66
  %68 = load i32, i32* %7, align 4
  %69 = sext i32 %68 to i64
  %70 = getelementptr inbounds [100 x i8], [100 x i8]* %2, i64 0, i64 %69
  %71 = load i8, i8* %70, align 1
  %72 = sext i8 %71 to i32
  %73 = icmp eq i32 %72, 32
  br i1 %73, label %74, label %114

74:                                               ; preds = %67
  %75 = load i32, i32* %7, align 4
  store i32 %75, i32* %10, align 4
  store i32 0, i32* %9, align 4
  br label %76

76:                                               ; preds = %108, %74
  %77 = load i32, i32* %9, align 4
  %78 = icmp sle i32 %77, 99
  br i1 %78, label %79, label %111

79:                                               ; preds = %76
  %80 = load i32, i32* %10, align 4
  %81 = add nsw i32 %80, 1
  store i32 %81, i32* %10, align 4
  %82 = load i32, i32* %10, align 4
  %83 = sext i32 %82 to i64
  %84 = getelementptr inbounds [100 x i8], [100 x i8]* %2, i64 0, i64 %83
  %85 = load i8, i8* %84, align 1
  %86 = sext i8 %85 to i32
  %87 = icmp ne i32 %86, 32
  br i1 %87, label %88, label %106

88:                                               ; preds = %79
  %89 = load i32, i32* %10, align 4
  %90 = sext i32 %89 to i64
  %91 = getelementptr inbounds [100 x i8], [100 x i8]* %2, i64 0, i64 %90
  %92 = load i8, i8* %91, align 1
  %93 = sext i8 %92 to i32
  %94 = icmp ne i32 %93, 0
  br i1 %94, label %95, label %106

95:                                               ; preds = %88
  %96 = load i32, i32* %10, align 4
  %97 = sext i32 %96 to i64
  %98 = getelementptr inbounds [100 x i8], [100 x i8]* %2, i64 0, i64 %97
  %99 = load i8, i8* %98, align 1
  %100 = load i32, i32* %8, align 4
  %101 = sext i32 %100 to i64
  %102 = getelementptr inbounds [100 x [100 x i8]], [100 x [100 x i8]]* %5, i64 0, i64 %101
  %103 = load i32, i32* %9, align 4
  %104 = sext i32 %103 to i64
  %105 = getelementptr inbounds [100 x i8], [100 x i8]* %102, i64 0, i64 %104
  store i8 %99, i8* %105, align 1
  br label %107

106:                                              ; preds = %88, %79
  br label %111

107:                                              ; preds = %95
  br label %108

108:                                              ; preds = %107
  %109 = load i32, i32* %9, align 4
  %110 = add nsw i32 %109, 1
  store i32 %110, i32* %9, align 4
  br label %76

111:                                              ; preds = %106, %76
  %112 = load i32, i32* %8, align 4
  %113 = add nsw i32 %112, 1
  store i32 %113, i32* %8, align 4
  br label %114

114:                                              ; preds = %111, %67
  %115 = load i32, i32* %7, align 4
  %116 = add nsw i32 %115, 1
  store i32 %116, i32* %7, align 4
  br label %117

117:                                              ; preds = %114
  %118 = load i32, i32* %7, align 4
  %119 = icmp sle i32 %118, 99
  br i1 %119, label %67, label %120

120:                                              ; preds = %117
  store i32 0, i32* %6, align 4
  br label %121

121:                                              ; preds = %140, %120
  %122 = load i32, i32* %6, align 4
  %123 = icmp sle i32 %122, 99
  br i1 %123, label %124, label %143

124:                                              ; preds = %121
  %125 = load i32, i32* %6, align 4
  %126 = sext i32 %125 to i64
  %127 = getelementptr inbounds [100 x [100 x i8]], [100 x [100 x i8]]* %5, i64 0, i64 %126
  %128 = getelementptr inbounds [100 x i8], [100 x i8]* %127, i64 0, i64 0
  %129 = getelementptr inbounds [100 x i8], [100 x i8]* %3, i64 0, i64 0
  %130 = call i32 @strcmp(i8* %128, i8* %129) #4
  %131 = icmp eq i32 %130, 0
  br i1 %131, label %132, label %139

132:                                              ; preds = %124
  %133 = load i32, i32* %6, align 4
  %134 = sext i32 %133 to i64
  %135 = getelementptr inbounds [100 x [100 x i8]], [100 x [100 x i8]]* %5, i64 0, i64 %134
  %136 = getelementptr inbounds [100 x i8], [100 x i8]* %135, i64 0, i64 0
  %137 = getelementptr inbounds [100 x i8], [100 x i8]* %4, i64 0, i64 0
  %138 = call i8* @strcpy(i8* %136, i8* %137) #5
  br label %139

139:                                              ; preds = %132, %124
  br label %140

140:                                              ; preds = %139
  %141 = load i32, i32* %6, align 4
  %142 = add nsw i32 %141, 1
  store i32 %142, i32* %6, align 4
  br label %121

143:                                              ; preds = %121
  store i32 0, i32* %13, align 4
  br label %144

144:                                              ; preds = %157, %143
  %145 = load i32, i32* %13, align 4
  %146 = icmp sle i32 %145, 99
  br i1 %146, label %147, label %160

147:                                              ; preds = %144
  %148 = load i32, i32* %13, align 4
  %149 = sext i32 %148 to i64
  %150 = getelementptr inbounds [100 x [100 x i8]], [100 x [100 x i8]]* %5, i64 0, i64 %149
  %151 = getelementptr inbounds [100 x i8], [100 x i8]* %150, i64 0, i64 0
  %152 = load i8, i8* %151, align 4
  %153 = sext i8 %152 to i32
  %154 = icmp eq i32 %153, 0
  br i1 %154, label %155, label %156

155:                                              ; preds = %147
  br label %160

156:                                              ; preds = %147
  br label %157

157:                                              ; preds = %156
  %158 = load i32, i32* %13, align 4
  %159 = add nsw i32 %158, 1
  store i32 %159, i32* %13, align 4
  br label %144

160:                                              ; preds = %155, %144
  store i32 0, i32* %6, align 4
  br label %161

161:                                              ; preds = %182, %160
  %162 = load i32, i32* %6, align 4
  %163 = load i32, i32* %13, align 4
  %164 = sub nsw i32 %163, 1
  %165 = icmp sle i32 %162, %164
  br i1 %165, label %166, label %185

166:                                              ; preds = %161
  %167 = load i32, i32* %6, align 4
  %168 = icmp eq i32 %167, 0
  br i1 %168, label %169, label %175

169:                                              ; preds = %166
  %170 = load i32, i32* %6, align 4
  %171 = sext i32 %170 to i64
  %172 = getelementptr inbounds [100 x [100 x i8]], [100 x [100 x i8]]* %5, i64 0, i64 %171
  %173 = getelementptr inbounds [100 x i8], [100 x i8]* %172, i64 0, i64 0
  %174 = call i32 (i8*, ...) @printf(i8* getelementptr inbounds ([3 x i8], [3 x i8]* @.str, i64 0, i64 0), i8* %173)
  br label %181

175:                                              ; preds = %166
  %176 = load i32, i32* %6, align 4
  %177 = sext i32 %176 to i64
  %178 = getelementptr inbounds [100 x [100 x i8]], [100 x [100 x i8]]* %5, i64 0, i64 %177
  %179 = getelementptr inbounds [100 x i8], [100 x i8]* %178, i64 0, i64 0
  %180 = call i32 (i8*, ...) @printf(i8* getelementptr inbounds ([4 x i8], [4 x i8]* @.str.1, i64 0, i64 0), i8* %179)
  br label %181

181:                                              ; preds = %175, %169
  br label %182

182:                                              ; preds = %181
  %183 = load i32, i32* %6, align 4
  %184 = add nsw i32 %183, 1
  store i32 %184, i32* %6, align 4
  br label %161

185:                                              ; preds = %161
  ret i32 0
}

declare dso_local i32 @gets(...) #1

; Function Attrs: nounwind readonly
declare dso_local i32 @strcmp(i8*, i8*) #2

; Function Attrs: nounwind
declare dso_local i8* @strcpy(i8*, i8*) #3

declare dso_local i32 @printf(i8*, ...) #1


!llvm.module.flags = !{!0}
!llvm.ident = !{!1}

!0 = !{i32 1, !"wchar_size", i32 4}
!1 = !{!"clang version 10.0.0-4ubuntu1 "}
